; Function Attrs: nounwind sspstrong uwtable
define hidden i64 @rb_yjit_rb_ary_subseq_length(i64 noundef %0, i64 noundef %1) local_unnamed_addr #0 {
  %3 = inttoptr i64 %0 to ptr
  %4 = load i64, ptr %3, align 8, !tbaa !11
  %5 = and i64 %4, 8192
  %.not.i = icmp eq i64 %5, 0
  br i1 %.not.i, label %9, label %6

6:                                                ; preds = %2
  %7 = lshr i64 %4, 15
  %8 = and i64 %7, 127
  br label %rb_array_len.exit

9:                                                ; preds = %2
  %10 = getelementptr inbounds nuw i8, ptr %3, i64 16
  %11 = load i64, ptr %10, align 8, !tbaa !14
  br label %rb_array_len.exit

rb_array_len.exit:                                ; preds = %6, %9
  %.0.i = phi i64 [ %8, %6 ], [ %11, %9 ]
  %12 = tail call i64 @rb_ary_subseq(i64 noundef %0, i64 noundef %1, i64 noundef %.0.i) #5
  ret i64 %12
}